target datalayout = "e-m:e-p270:32:32-p271:32:32-p272:64:64-i64:64-i128:128-f80:128-n8:16:32:64-S128"
target triple = "x86_64-pc-linux-gnu"

%"class.std::__shared_count" = type { ptr }
%"class.std::shared_ptr.190" = type { %"class.std::__shared_ptr.191" }
%"class.std::__shared_ptr.191" = type { ptr, %"class.std::__shared_count" }
%class.anon.196 = type { %"class.std::shared_ptr.190" }
%"class.std::packaged_task" = type { %"class.std::shared_ptr.193" }
%"class.std::shared_ptr.193" = type { %"class.std::__shared_ptr.194" }
%"class.std::__shared_ptr.194" = type { ptr, %"class.std::__shared_count" }

; Function Attrs: mustprogress nounwind uwtable
define linkonce_odr noundef ptr @_ZNKSt12__shared_ptrINSt13__future_base16_Task_state_baseIFviEEELN9__gnu_cxx12_Lock_policyE2EE3getEv(ptr noundef nonnull align 8 dereferenceable(16) %0) #8 comdat align 2 {
  %2 = alloca ptr, align 8
  store ptr %0, ptr %2, align 8, !tbaa !1334
  %3 = load ptr, ptr %2, align 8
  %4 = getelementptr inbounds nuw %"class.std::__shared_ptr.194", ptr %3, i32 0, i32 0
  %5 = load ptr, ptr %4, align 8, !tbaa !1336
  ret ptr %5
}

; Function Attrs: mustprogress nounwind uwtable
define linkonce_odr noundef ptr @_ZNKSt19__shared_ptr_accessINSt13__future_base16_Task_state_baseIFviEEELN9__gnu_cxx12_Lock_policyE2ELb0ELb0EE6_M_getEv(ptr noundef nonnull align 1 dereferenceable(1) %0) #8 comdat align 2 {
  %2 = alloca ptr, align 8
  store ptr %0, ptr %2, align 8, !tbaa !1338
  %3 = load ptr, ptr %2, align 8
  %4 = call noundef ptr @_ZNKSt12__shared_ptrINSt13__future_base16_Task_state_baseIFviEEELN9__gnu_cxx12_Lock_policyE2EE3getEv(ptr noundef nonnull align 8 dereferenceable(16) %3) #3
  ret ptr %4
}

; Function Attrs: mustprogress nounwind uwtable
define linkonce_odr noundef zeroext i1 @_ZNKSt12__shared_ptrINSt13__future_base16_Task_state_baseIFviEEELN9__gnu_cxx12_Lock_policyE2EEcvbEv(ptr noundef nonnull align 8 dereferenceable(16) %0) #8 comdat align 2 {
  %2 = alloca ptr, align 8
  store ptr %0, ptr %2, align 8, !tbaa !1334
  %3 = load ptr, ptr %2, align 8
  %4 = getelementptr inbounds nuw %"class.std::__shared_ptr.194", ptr %3, i32 0, i32 0
  %5 = load ptr, ptr %4, align 8, !tbaa !1336
  %6 = icmp ne ptr %5, null
  ret i1 %6
}

; Function Attrs: mustprogress nounwind uwtable
define linkonce_odr noundef ptr @_ZNKSt12__shared_ptrISt13packaged_taskIFviEELN9__gnu_cxx12_Lock_policyE2EE3getEv(ptr noundef nonnull align 8 dereferenceable(16) %0) #8 comdat align 2 {
  %2 = alloca ptr, align 8
  store ptr %0, ptr %2, align 8, !tbaa !1128
  %3 = load ptr, ptr %2, align 8
  %4 = getelementptr inbounds nuw %"class.std::__shared_ptr.191", ptr %3, i32 0, i32 0
  %5 = load ptr, ptr %4, align 8, !tbaa !1131
  ret ptr %5
}

; Function Attrs: mustprogress nounwind uwtable
define linkonce_odr noundef ptr @_ZNKSt19__shared_ptr_accessINSt13__future_base16_Task_state_baseIFviEEELN9__gnu_cxx12_Lock_policyE2ELb0ELb0EEptEv(ptr noundef nonnull align 1 dereferenceable(1) %0) #8 comdat align 2 {
  %2 = alloca ptr, align 8
  store ptr %0, ptr %2, align 8, !tbaa !1338
  %3 = load ptr, ptr %2, align 8
  %4 = call noundef ptr @_ZNKSt19__shared_ptr_accessINSt13__future_base16_Task_state_baseIFviEEELN9__gnu_cxx12_Lock_policyE2ELb0ELb0EE6_M_getEv(ptr noundef nonnull align 1 dereferenceable(1) %3) #3
  ret ptr %4
}

; Function Attrs: mustprogress uwtable
define linkonce_odr void @_ZNSt13__future_base13_State_baseV28_S_checkINS_16_Task_state_baseIFviEEEEEvRKSt10shared_ptrIT_E(ptr noundef nonnull align 8 dereferenceable(16) %0) #6 comdat align 2 {
  %2 = alloca ptr, align 8
  store ptr %0, ptr %2, align 8, !tbaa !1154
  %3 = load ptr, ptr %2, align 8, !tbaa !1154
  %4 = call noundef zeroext i1 @_ZNKSt12__shared_ptrINSt13__future_base16_Task_state_baseIFviEEELN9__gnu_cxx12_Lock_policyE2EEcvbEv(ptr noundef nonnull align 8 dereferenceable(16) %3) #3
  br i1 %4, label %6, label %5

5:                                                ; preds = %1
  call void @_ZSt20__throw_future_errori(i32 noundef 3) #28
  unreachable

6:                                                ; preds = %1
  ret void
}

; Function Attrs: mustprogress nounwind uwtable
define linkonce_odr noundef ptr @_ZNKSt19__shared_ptr_accessISt13packaged_taskIFviEELN9__gnu_cxx12_Lock_policyE2ELb0ELb0EE6_M_getEv(ptr noundef nonnull align 1 dereferenceable(1) %0) #8 comdat align 2 {
  %2 = alloca ptr, align 8
  store ptr %0, ptr %2, align 8, !tbaa !1118
  %3 = load ptr, ptr %2, align 8
  %4 = call noundef ptr @_ZNKSt12__shared_ptrISt13packaged_taskIFviEELN9__gnu_cxx12_Lock_policyE2EE3getEv(ptr noundef nonnull align 8 dereferenceable(16) %3) #3
  ret ptr %4
}

; Function Attrs: mustprogress uwtable
define linkonce_odr void @_ZNSt13packaged_taskIFviEEclEi(ptr noundef nonnull align 8 dereferenceable(16) %0, i32 noundef %1) #6 comdat align 2 {
  %3 = alloca ptr, align 8
  %4 = alloca i32, align 4
  store ptr %0, ptr %3, align 8, !tbaa !1120
  store i32 %1, ptr %4, align 4, !tbaa !105
  %5 = load ptr, ptr %3, align 8
  %6 = getelementptr inbounds nuw %"class.std::packaged_task", ptr %5, i32 0, i32 0
  call void @_ZNSt13__future_base13_State_baseV28_S_checkINS_16_Task_state_baseIFviEEEEEvRKSt10shared_ptrIT_E(ptr noundef nonnull align 8 dereferenceable(16) %6)
  %7 = getelementptr inbounds nuw %"class.std::packaged_task", ptr %5, i32 0, i32 0
  %8 = call noundef ptr @_ZNKSt19__shared_ptr_accessINSt13__future_base16_Task_state_baseIFviEEELN9__gnu_cxx12_Lock_policyE2ELb0ELb0EEptEv(ptr noundef nonnull align 1 dereferenceable(1) %7) #3
  %9 = load ptr, ptr %8, align 8, !tbaa !28
  %10 = getelementptr inbounds ptr, ptr %9, i64 4
  %11 = load ptr, ptr %10, align 8
  call void %11(ptr noundef nonnull align 8 dereferenceable(40) %8, ptr noundef nonnull align 4 dereferenceable(4) %4)
  ret void
}

; Function Attrs: mustprogress nounwind uwtable
define linkonce_odr noundef nonnull align 8 dereferenceable(16) ptr @_ZNKSt19__shared_ptr_accessISt13packaged_taskIFviEELN9__gnu_cxx12_Lock_policyE2ELb0ELb0EEdeEv(ptr noundef nonnull align 1 dereferenceable(1) %0) #8 comdat align 2 {
  %2 = alloca ptr, align 8
  store ptr %0, ptr %2, align 8, !tbaa !1118
  %3 = load ptr, ptr %2, align 8
  br label %4

4:                                                ; preds = %1
  br label %5

5:                                                ; preds = %4
  br label %6

6:                                                ; preds = %5
  %7 = call noundef ptr @_ZNKSt19__shared_ptr_accessISt13packaged_taskIFviEELN9__gnu_cxx12_Lock_policyE2ELb0ELb0EE6_M_getEv(ptr noundef nonnull align 1 dereferenceable(1) %3) #3
  ret ptr %7
}

; Function Attrs: inlinehint mustprogress uwtable
define internal void @"_ZZN11OpenImageIO6v3_1_011thread_pool4pushIZNS0_10TIFFOutput15write_scanlinesEiiiNS0_8TypeDescEPKvllE3$_0EESt6futureIDTclfL0p_Li0EEEEOT_ENKUliE_clEi"(ptr noundef nonnull align 8 dereferenceable(16) %0, i32 noundef %1) #10 align 2 {
  %3 = alloca ptr, align 8
  %4 = alloca i32, align 4
  store ptr %0, ptr %3, align 8, !tbaa !142
  store i32 %1, ptr %4, align 4, !tbaa !105
  %5 = load ptr, ptr %3, align 8
  %6 = getelementptr inbounds nuw %class.anon.196, ptr %5, i32 0, i32 0
  %7 = call noundef nonnull align 8 dereferenceable(16) ptr @_ZNKSt19__shared_ptr_accessISt13packaged_taskIFviEELN9__gnu_cxx12_Lock_policyE2ELb0ELb0EEdeEv(ptr noundef nonnull align 1 dereferenceable(1) %6) #3
  %8 = load i32, ptr %4, align 4, !tbaa !105
  call void @_ZNSt13packaged_taskIFviEEclEi(ptr noundef nonnull align 8 dereferenceable(16) %7, i32 noundef %8)
  ret void
}

; Function Attrs: mustprogress nounwind uwtable
define linkonce_odr noundef ptr @_ZNKSt9_Any_data9_M_accessEv(ptr noundef nonnull align 8 dereferenceable(16) %0) #8 comdat align 2 {
  %2 = alloca ptr, align 8
  store ptr %0, ptr %2, align 8, !tbaa !1280
  %3 = load ptr, ptr %2, align 8
  %4 = getelementptr inbounds [16 x i8], ptr %3, i64 0, i64 0
  ret ptr %4
}

; Function Attrs: mustprogress uwtable
define internal void @"_ZSt13__invoke_implIvRZN11OpenImageIO6v3_1_011thread_pool4pushIZNS1_10TIFFOutput15write_scanlinesEiiiNS1_8TypeDescEPKvllE3$_0EESt6futureIDTclfL0p_Li0EEEEOT_EUliE_JiEESC_St14__invoke_otherOT0_DpOT1_"(ptr noundef nonnull align 8 dereferenceable(16) %0, ptr noundef nonnull align 4 dereferenceable(4) %1) #6 {
  %3 = alloca ptr, align 8
  %4 = alloca ptr, align 8
  store ptr %0, ptr %3, align 8, !tbaa !142
  store ptr %1, ptr %4, align 8, !tbaa !140
  %5 = load ptr, ptr %3, align 8, !tbaa !142
  %6 = load ptr, ptr %4, align 8, !tbaa !140
  %7 = load i32, ptr %6, align 4, !tbaa !105
  call void @"_ZZN11OpenImageIO6v3_1_011thread_pool4pushIZNS0_10TIFFOutput15write_scanlinesEiiiNS0_8TypeDescEPKvllE3$_0EESt6futureIDTclfL0p_Li0EEEEOT_ENKUliE_clEi"(ptr noundef nonnull align 8 dereferenceable(16) %5, i32 noundef %7)
  ret void
}

; Function Attrs: mustprogress nounwind uwtable
define internal noundef nonnull align 8 dereferenceable(8) ptr @"_ZNKSt9_Any_data9_M_accessIPZN11OpenImageIO6v3_1_011thread_pool4pushIZNS2_10TIFFOutput15write_scanlinesEiiiNS2_8TypeDescEPKvllE3$_0EESt6futureIDTclfL0p_Li0EEEEOT_EUliE_EERKSD_v"(ptr noundef nonnull align 8 dereferenceable(16) %0) #8 align 2 {
  %2 = alloca ptr, align 8
  store ptr %0, ptr %2, align 8, !tbaa !1280
  %3 = load ptr, ptr %2, align 8
  %4 = call noundef ptr @_ZNKSt9_Any_data9_M_accessEv(ptr noundef nonnull align 8 dereferenceable(16) %3) #3
  ret ptr %4
}

; Function Attrs: mustprogress uwtable
define internal void @"_ZSt10__invoke_rIvRZN11OpenImageIO6v3_1_011thread_pool4pushIZNS1_10TIFFOutput15write_scanlinesEiiiNS1_8TypeDescEPKvllE3$_0EESt6futureIDTclfL0p_Li0EEEEOT_EUliE_JiEENSt9enable_ifIX16is_invocable_r_vISC_T0_DpT1_EESC_E4typeEOSH_DpOSI_"(ptr noundef nonnull align 8 dereferenceable(16) %0, ptr noundef nonnull align 4 dereferenceable(4) %1) #6 {
  %3 = alloca ptr, align 8
  %4 = alloca ptr, align 8
  store ptr %0, ptr %3, align 8, !tbaa !142
  store ptr %1, ptr %4, align 8, !tbaa !140
  %5 = load ptr, ptr %3, align 8, !tbaa !142
  %6 = load ptr, ptr %4, align 8, !tbaa !140
  call void @"_ZSt13__invoke_implIvRZN11OpenImageIO6v3_1_011thread_pool4pushIZNS1_10TIFFOutput15write_scanlinesEiiiNS1_8TypeDescEPKvllE3$_0EESt6futureIDTclfL0p_Li0EEEEOT_EUliE_JiEESC_St14__invoke_otherOT0_DpOT1_"(ptr noundef nonnull align 8 dereferenceable(16) %5, ptr noundef nonnull align 4 dereferenceable(4) %6)
  ret void
}

; Function Attrs: mustprogress nounwind uwtable
define internal noundef ptr @"_ZNSt14_Function_base13_Base_managerIZN11OpenImageIO6v3_1_011thread_pool4pushIZNS2_10TIFFOutput15write_scanlinesEiiiNS2_8TypeDescEPKvllE3$_0EESt6futureIDTclfL0p_Li0EEEEOT_EUliE_E14_M_get_pointerERKSt9_Any_data"(ptr noundef nonnull align 8 dereferenceable(16) %0) #8 align 2 {
  %2 = alloca ptr, align 8
  store ptr %0, ptr %2, align 8, !tbaa !1280
  %3 = load ptr, ptr %2, align 8, !tbaa !1280
  %4 = call noundef nonnull align 8 dereferenceable(8) ptr @"_ZNKSt9_Any_data9_M_accessIPZN11OpenImageIO6v3_1_011thread_pool4pushIZNS2_10TIFFOutput15write_scanlinesEiiiNS2_8TypeDescEPKvllE3$_0EESt6futureIDTclfL0p_Li0EEEEOT_EUliE_EERKSD_v"(ptr noundef nonnull align 8 dereferenceable(16) %3) #3
  %5 = load ptr, ptr %4, align 8, !tbaa !142
  ret ptr %5
}

; Function Attrs: mustprogress uwtable
define internal void @"_ZNSt17_Function_handlerIFviEZN11OpenImageIO6v3_1_011thread_pool4pushIZNS2_10TIFFOutput15write_scanlinesEiiiNS2_8TypeDescEPKvllE3$_0EESt6futureIDTclfL0p_Li0EEEEOT_EUliE_E9_M_invokeERKSt9_Any_dataOi"(ptr noundef nonnull align 8 dereferenceable(16) %0, ptr noundef nonnull align 4 dereferenceable(4) %1) #6 align 2 {
  %3 = alloca ptr, align 8
  %4 = alloca ptr, align 8
  store ptr %0, ptr %3, align 8, !tbaa !1280
  store ptr %1, ptr %4, align 8, !tbaa !140
  %5 = load ptr, ptr %3, align 8, !tbaa !1280
  %6 = call noundef ptr @"_ZNSt14_Function_base13_Base_managerIZN11OpenImageIO6v3_1_011thread_pool4pushIZNS2_10TIFFOutput15write_scanlinesEiiiNS2_8TypeDescEPKvllE3$_0EESt6futureIDTclfL0p_Li0EEEEOT_EUliE_E14_M_get_pointerERKSt9_Any_data"(ptr noundef nonnull align 8 dereferenceable(16) %5) #3
  %7 = load ptr, ptr %4, align 8, !tbaa !140
  call void @"_ZSt10__invoke_rIvRZN11OpenImageIO6v3_1_011thread_pool4pushIZNS1_10TIFFOutput15write_scanlinesEiiiNS1_8TypeDescEPKvllE3$_0EESt6futureIDTclfL0p_Li0EEEEOT_EUliE_JiEENSt9enable_ifIX16is_invocable_r_vISC_T0_DpT1_EESC_E4typeEOSH_DpOSI_"(ptr noundef nonnull align 8 dereferenceable(16) %6, ptr noundef nonnull align 4 dereferenceable(4) %7)
  ret void
}